target datalayout = "e-m:e-p270:32:32-p271:32:32-p272:64:64-i64:64-i128:128-f80:128-n8:16:32:64-S128"
target triple = "x86_64-pc-linux-gnu"

%"class.marisa::grimoire::io::Mapper" = type <{ ptr, ptr, i64, i64, i32, [4 x i8] }>

; Function Attrs: mustprogress nounwind uwtable
define void @_ZN6marisa8grimoire2io6MapperD2Ev(ptr noundef nonnull align 8 dereferenceable(36) %0) unnamed_addr #0 align 2 personality ptr @__gxx_personality_v0 {
  %2 = alloca ptr, align 8
  store ptr %0, ptr %2, align 8, !tbaa !3
  %3 = load ptr, ptr %2, align 8
  %4 = getelementptr inbounds nuw %"class.marisa::grimoire::io::Mapper", ptr %3, i32 0, i32 1
  %5 = load ptr, ptr %4, align 8, !tbaa !12
  %6 = icmp ne ptr %5, inttoptr (i64 -1 to ptr)
  br i1 %6, label %7, label %13

7:                                                ; preds = %1
  %8 = getelementptr inbounds nuw %"class.marisa::grimoire::io::Mapper", ptr %3, i32 0, i32 1
  %9 = load ptr, ptr %8, align 8, !tbaa !12
  %10 = getelementptr inbounds nuw %"class.marisa::grimoire::io::Mapper", ptr %3, i32 0, i32 3
  %11 = load i64, ptr %10, align 8, !tbaa !14
  %12 = call i32 @munmap(ptr noundef %9, i64 noundef %11) #8
  br label %13

13:                                               ; preds = %7, %1
  %14 = getelementptr inbounds nuw %"class.marisa::grimoire::io::Mapper", ptr %3, i32 0, i32 4
  %15 = load i32, ptr %14, align 8, !tbaa !15
  %16 = icmp ne i32 %15, -1
  br i1 %16, label %17, label %22

17:                                               ; preds = %13
  %18 = getelementptr inbounds nuw %"class.marisa::grimoire::io::Mapper", ptr %3, i32 0, i32 4
  %19 = load i32, ptr %18, align 8, !tbaa !15
  %20 = invoke i32 @close(i32 noundef %19)
          to label %21 unwind label %23

21:                                               ; preds = %17
  br label %22

22:                                               ; preds = %21, %13
  ret void

23:                                               ; preds = %17
  %24 = landingpad { ptr, i32 }
          catch ptr null
  %25 = extractvalue { ptr, i32 } %24, 0
  call void @__clang_call_terminate(ptr %25) #9
  unreachable
}