; Function Attrs: mustprogress nounwind uwtable
define void @_ZN6marisa8grimoire2io6MapperD2Ev(ptr noundef nonnull readonly align 8 captures(none) dereferenceable(36) %0) unnamed_addr #1 align 2 personality ptr @__gxx_personality_v0 {
  %2 = getelementptr inbounds nuw i8, ptr %0, i64 8
  %3 = load ptr, ptr %2, align 8, !tbaa !10
  %.not = icmp eq ptr %3, inttoptr (i64 -1 to ptr)
  br i1 %.not, label %8, label %4

4:                                                ; preds = %1
  %5 = getelementptr inbounds nuw i8, ptr %0, i64 24
  %6 = load i64, ptr %5, align 8, !tbaa !12
  %7 = tail call i32 @munmap(ptr noundef %3, i64 noundef %6) #15
  br label %8

8:                                                ; preds = %4, %1
  %9 = getelementptr inbounds nuw i8, ptr %0, i64 32
  %10 = load i32, ptr %9, align 8, !tbaa !11
  %.not2 = icmp eq i32 %10, -1
  br i1 %.not2, label %13, label %11

11:                                               ; preds = %8
  %12 = invoke i32 @close(i32 noundef %10)
          to label %13 unwind label %14

13:                                               ; preds = %11, %8
  ret void

14:                                               ; preds = %11
  %15 = landingpad { ptr, i32 }
          catch ptr null
  %16 = extractvalue { ptr, i32 } %15, 0
  tail call void @__clang_call_terminate(ptr %16) #16
  unreachable
}